target datalayout = "e-m:e-p270:32:32-p271:32:32-p272:64:64-i64:64-i128:128-f80:128-n8:16:32:64-S128"
target triple = "x86_64-pc-linux-gnu"

%class.Register = type { i32 }
%class.XMMRegister = type { i32 }
%class.Address = type { %class.Register, %class.Register, %class.XMMRegister, i32, i32, i8, [3 x i8], %class.RelocationHolder }
%class.RelocationHolder = type { [40 x i8] }
%class.AddressLiteral = type { %class.RelocationHolder, i8, ptr }
%class.AbstractAssembler = type { ptr, ptr, ptr }
%class.CodeSection = type { ptr, ptr, ptr, ptr, ptr, ptr, ptr, ptr, i8, i8, i32, i8, ptr }
%class.Relocation = type <{ ptr, ptr, i32, [4 x i8] }>

@_ZL5noreg = internal constant %class.Register { i32 -1 }, align 4
@_ZL6xnoreg = internal constant %class.XMMRegister { i32 -1 }, align 4
@_ZTV10Relocation = external unnamed_addr constant { [11 x ptr] }, align 8

; Function Attrs: mustprogress nounwind uwtable
define linkonce_odr hidden void @_ZN10RelocationC2EN9relocInfo9relocTypeE(ptr noundef nonnull align 8 dereferenceable(20) %0, i32 noundef %1) unnamed_addr #1 comdat align 2 {
  %3 = alloca ptr, align 8
  %4 = alloca i32, align 4
  store ptr %0, ptr %3, align 8
  store i32 %1, ptr %4, align 4
  %5 = load ptr, ptr %3, align 8
  store ptr getelementptr inbounds inrange(-16, 72) ({ [11 x ptr] }, ptr @_ZTV10Relocation, i32 0, i32 0, i32 2), ptr %5, align 8
  %6 = getelementptr inbounds %class.Relocation, ptr %5, i32 0, i32 1
  store ptr null, ptr %6, align 8
  %7 = getelementptr inbounds %class.Relocation, ptr %5, i32 0, i32 2
  %8 = load i32, ptr %4, align 4
  store i32 %8, ptr %7, align 8
  ret void
}

; Function Attrs: mustprogress nounwind uwtable
define linkonce_odr hidden void @_ZN10RelocationC2Ev(ptr noundef nonnull align 8 dereferenceable(20) %0) unnamed_addr #1 comdat align 2 {
  %2 = alloca ptr, align 8
  store ptr %0, ptr %2, align 8
  %3 = load ptr, ptr %2, align 8
  call void @_ZN10RelocationC2EN9relocInfo9relocTypeE(ptr noundef nonnull align 8 dereferenceable(20) %3, i32 noundef 0)
  ret void
}

; Function Attrs: mustprogress nounwind uwtable
define linkonce_odr hidden void @_ZN16RelocationHolder18emplace_relocationI10RelocationJEEEvDpRKT0_(ptr noundef nonnull align 8 dereferenceable(40) %0) #1 comdat align 2 {
  %2 = alloca ptr, align 8
  %3 = alloca ptr, align 8
  store ptr %0, ptr %2, align 8
  %4 = load ptr, ptr %2, align 8
  %5 = getelementptr inbounds %class.RelocationHolder, ptr %4, i32 0, i32 0
  %6 = getelementptr inbounds [40 x i8], ptr %5, i64 0, i64 0
  call void @_ZN10RelocationC2Ev(ptr noundef nonnull align 8 dereferenceable(20) %6)
  store ptr %6, ptr %3, align 8
  ret void
}

; Function Attrs: mustprogress nounwind uwtable
define linkonce_odr hidden noundef i32 @_ZNK10Relocation4typeEv(ptr noundef nonnull align 8 dereferenceable(20) %0) #1 comdat align 2 {
  %2 = alloca ptr, align 8
  store ptr %0, ptr %2, align 8
  %3 = load ptr, ptr %2, align 8
  %4 = getelementptr inbounds %class.Relocation, ptr %3, i32 0, i32 2
  %5 = load i32, ptr %4, align 8
  ret i32 %5
}

; Function Attrs: mustprogress nounwind uwtable
define linkonce_odr hidden void @_ZN16RelocationHolderC2I10RelocationJEEENS_9ConstructIT_EEDpRKT0_(ptr noundef nonnull align 8 dereferenceable(40) %0) unnamed_addr #1 comdat align 2 {
  %2 = alloca ptr, align 8
  store ptr %0, ptr %2, align 8
  %3 = load ptr, ptr %2, align 8
  call void @_ZN16RelocationHolder18emplace_relocationI10RelocationJEEEvDpRKT0_(ptr noundef nonnull align 8 dereferenceable(40) %3)
  ret void
}

; Function Attrs: mustprogress nounwind uwtable
define linkonce_odr hidden noundef i32 @_ZNK16RelocationHolder4typeEv(ptr noundef nonnull align 8 dereferenceable(40) %0) #1 comdat align 2 {
  %2 = alloca ptr, align 8
  store ptr %0, ptr %2, align 8
  %3 = load ptr, ptr %2, align 8
  %4 = call noundef ptr @_ZNK16RelocationHolder5relocEv(ptr noundef nonnull align 8 dereferenceable(40) %3)
  %5 = call noundef i32 @_ZNK10Relocation4typeEv(ptr noundef nonnull align 8 dereferenceable(20) %4)
  ret i32 %5
}

; Function Attrs: mustprogress nounwind uwtable
define linkonce_odr hidden noundef ptr @_ZNK11CodeSection3endEv(ptr noundef nonnull align 8 dereferenceable(88) %0) #1 comdat align 2 {
  %2 = alloca ptr, align 8
  store ptr %0, ptr %2, align 8
  %3 = load ptr, ptr %2, align 8
  %4 = getelementptr inbounds %class.CodeSection, ptr %3, i32 0, i32 2
  %5 = load ptr, ptr %4, align 8
  ret ptr %5
}

; Function Attrs: mustprogress nounwind uwtable
define linkonce_odr hidden noundef ptr @_ZNK17AbstractAssembler12code_sectionEv(ptr noundef nonnull align 8 dereferenceable(24) %0) #1 comdat align 2 {
  %2 = alloca ptr, align 8
  store ptr %0, ptr %2, align 8
  %3 = load ptr, ptr %2, align 8
  %4 = getelementptr inbounds %class.AbstractAssembler, ptr %3, i32 0, i32 1
  %5 = load ptr, ptr %4, align 8
  ret ptr %5
}

; Function Attrs: mustprogress nounwind uwtable
define linkonce_odr hidden noundef ptr @_ZNK16RelocationHolder5relocEv(ptr noundef nonnull align 8 dereferenceable(40) %0) #1 comdat align 2 {
  %2 = alloca ptr, align 8
  store ptr %0, ptr %2, align 8
  %3 = load ptr, ptr %2, align 8
  %4 = getelementptr inbounds %class.RelocationHolder, ptr %3, i32 0, i32 0
  %5 = getelementptr inbounds [40 x i8], ptr %4, i64 0, i64 0
  ret ptr %5
}

; Function Attrs: mustprogress nounwind uwtable
define linkonce_odr hidden void @_ZN16RelocationHolderC2Ev(ptr noundef nonnull align 8 dereferenceable(40) %0) unnamed_addr #1 comdat align 2 {
  %2 = alloca ptr, align 8
  store ptr %0, ptr %2, align 8
  %3 = load ptr, ptr %2, align 8
  call void @_ZN16RelocationHolderC2I10RelocationJEEENS_9ConstructIT_EEDpRKT0_(ptr noundef nonnull align 8 dereferenceable(40) %3)
  ret void
}

; Function Attrs: mustprogress nounwind uwtable
define linkonce_odr hidden noundef nonnull align 8 dereferenceable(40) ptr @_ZNK14AddressLiteral5rspecEv(ptr noundef nonnull align 8 dereferenceable(56) %0) #1 comdat align 2 {
  %2 = alloca ptr, align 8
  store ptr %0, ptr %2, align 8
  %3 = load ptr, ptr %2, align 8
  %4 = getelementptr inbounds %class.AddressLiteral, ptr %3, i32 0, i32 0
  ret ptr %4
}

; Function Attrs: mustprogress nounwind uwtable
define linkonce_odr hidden noundef i32 @_ZNK14AddressLiteral5relocEv(ptr noundef nonnull align 8 dereferenceable(56) %0) #1 comdat align 2 {
  %2 = alloca ptr, align 8
  store ptr %0, ptr %2, align 8
  %3 = load ptr, ptr %2, align 8
  %4 = getelementptr inbounds %class.AddressLiteral, ptr %3, i32 0, i32 0
  %5 = call noundef i32 @_ZNK16RelocationHolder4typeEv(ptr noundef nonnull align 8 dereferenceable(40) %4)
  ret i32 %5
}

; Function Attrs: mustprogress nounwind uwtable
define linkonce_odr hidden noundef i32 @_Z12checked_castIilET_T0_(i64 noundef %0) #1 comdat {
  %2 = alloca i64, align 8
  %3 = alloca i32, align 4
  store i64 %0, ptr %2, align 8
  %4 = load i64, ptr %2, align 8
  %5 = trunc i64 %4 to i32
  store i32 %5, ptr %3, align 4
  %6 = load i32, ptr %3, align 4
  ret i32 %6
}

; Function Attrs: mustprogress nounwind uwtable
define linkonce_odr hidden noundef ptr @_ZNK17AbstractAssembler2pcEv(ptr noundef nonnull align 8 dereferenceable(24) %0) #1 comdat align 2 {
  %2 = alloca ptr, align 8
  store ptr %0, ptr %2, align 8
  %3 = load ptr, ptr %2, align 8
  %4 = call noundef ptr @_ZNK17AbstractAssembler12code_sectionEv(ptr noundef nonnull align 8 dereferenceable(24) %3)
  %5 = call noundef ptr @_ZNK11CodeSection3endEv(ptr noundef nonnull align 8 dereferenceable(88) %4)
  ret ptr %5
}

; Function Attrs: mustprogress nounwind uwtable
define linkonce_odr hidden noundef ptr @_ZN14AddressLiteral6targetEv(ptr noundef nonnull align 8 dereferenceable(56) %0) #1 comdat align 2 {
  %2 = alloca ptr, align 8
  store ptr %0, ptr %2, align 8
  %3 = load ptr, ptr %2, align 8
  %4 = getelementptr inbounds %class.AddressLiteral, ptr %3, i32 0, i32 2
  %5 = load ptr, ptr %4, align 8
  ret ptr %5
}

; Function Attrs: mustprogress nounwind uwtable
define linkonce_odr hidden void @_ZN16RelocationHolderC2ERKS_(ptr noundef nonnull align 8 dereferenceable(40) %0, ptr noundef nonnull align 8 dereferenceable(40) %1) unnamed_addr #1 comdat align 2 {
  %3 = alloca ptr, align 8
  %4 = alloca ptr, align 8
  store ptr %0, ptr %3, align 8
  store ptr %1, ptr %4, align 8
  %5 = load ptr, ptr %3, align 8
  %6 = load ptr, ptr %4, align 8
  %7 = call noundef ptr @_ZNK16RelocationHolder5relocEv(ptr noundef nonnull align 8 dereferenceable(40) %6)
  %8 = load ptr, ptr %7, align 8
  %9 = getelementptr inbounds ptr, ptr %8, i64 2
  %10 = load ptr, ptr %9, align 8
  call void %10(ptr noundef nonnull align 8 dereferenceable(20) %7, ptr noundef nonnull align 8 dereferenceable(40) %5)
  ret void
}

; Function Attrs: mustprogress nounwind uwtable
define linkonce_odr hidden void @_ZN7AddressC2E8Registeri(ptr noundef nonnull align 8 dereferenceable(64) %0, i32 %1, i32 noundef %2) unnamed_addr #1 comdat align 2 {
  %4 = alloca %class.Register, align 4
  %5 = alloca ptr, align 8
  %6 = alloca i32, align 4
  %7 = getelementptr inbounds %class.Register, ptr %4, i32 0, i32 0
  store i32 %1, ptr %7, align 4
  store ptr %0, ptr %5, align 8
  store i32 %2, ptr %6, align 4
  %8 = load ptr, ptr %5, align 8
  %9 = getelementptr inbounds %class.Address, ptr %8, i32 0, i32 0
  call void @llvm.memcpy.p0.p0.i64(ptr align 8 %9, ptr align 4 %4, i64 4, i1 false)
  %10 = getelementptr inbounds %class.Address, ptr %8, i32 0, i32 1
  call void @llvm.memcpy.p0.p0.i64(ptr align 4 %10, ptr align 4 @_ZL5noreg, i64 4, i1 false)
  %11 = getelementptr inbounds %class.Address, ptr %8, i32 0, i32 2
  call void @llvm.memcpy.p0.p0.i64(ptr align 8 %11, ptr align 4 @_ZL6xnoreg, i64 4, i1 false)
  %12 = getelementptr inbounds %class.Address, ptr %8, i32 0, i32 3
  store i32 -1, ptr %12, align 4
  %13 = getelementptr inbounds %class.Address, ptr %8, i32 0, i32 4
  %14 = load i32, ptr %6, align 4
  store i32 %14, ptr %13, align 8
  %15 = getelementptr inbounds %class.Address, ptr %8, i32 0, i32 5
  store i8 0, ptr %15, align 4
  %16 = getelementptr inbounds %class.Address, ptr %8, i32 0, i32 7
  call void @_ZN16RelocationHolderC2Ev(ptr noundef nonnull align 8 dereferenceable(40) %16)
  ret void
}

; Function Attrs: mustprogress nounwind uwtable
define hidden void @_ZN14MacroAssembler3leaE8Register14AddressLiteral(ptr noundef nonnull align 8 dereferenceable(40) %0, i32 %1, ptr noundef %2) #1 align 2 {
  %4 = alloca %class.Register, align 4
  %5 = alloca ptr, align 8
  %6 = alloca ptr, align 8
  %7 = alloca %class.Register, align 4
  %8 = getelementptr inbounds %class.Register, ptr %4, i32 0, i32 0
  store i32 %1, ptr %8, align 4
  store ptr %0, ptr %5, align 8
  store ptr %2, ptr %6, align 8
  %9 = load ptr, ptr %5, align 8
  call void @llvm.memcpy.p0.p0.i64(ptr align 4 %7, ptr align 4 %4, i64 4, i1 false)
  %10 = call noundef ptr @_ZN14AddressLiteral6targetEv(ptr noundef nonnull align 8 dereferenceable(56) %2)
  %11 = ptrtoint ptr %10 to i64
  %12 = call noundef nonnull align 8 dereferenceable(40) ptr @_ZNK14AddressLiteral5rspecEv(ptr noundef nonnull align 8 dereferenceable(56) %2)
  %13 = getelementptr inbounds %class.Register, ptr %7, i32 0, i32 0
  %14 = load i32, ptr %13, align 4
  call void @_ZN9Assembler13mov_literal64E8RegisterlRK16RelocationHolder(ptr noundef nonnull align 8 dereferenceable(40) %9, i32 %14, i64 noundef %11, ptr noundef nonnull align 8 dereferenceable(40) %12)
  ret void
}

; Function Attrs: mustprogress nounwind uwtable
define hidden void @_ZN14MacroAssembler10as_AddressE14AddressLiteral(ptr dead_on_unwind noalias writable sret(%class.Address) align 8 %0, ptr noundef nonnull align 8 dereferenceable(40) %1, ptr noundef %2) #1 align 2 {
  %4 = alloca ptr, align 8
  %5 = alloca ptr, align 8
  %6 = alloca ptr, align 8
  store ptr %0, ptr %4, align 8
  store ptr %1, ptr %5, align 8
  store ptr %2, ptr %6, align 8
  %7 = load ptr, ptr %5, align 8
  %8 = call noundef ptr @_ZN14AddressLiteral6targetEv(ptr noundef nonnull align 8 dereferenceable(56) %2)
  %9 = call noundef ptr @_ZNK17AbstractAssembler2pcEv(ptr noundef nonnull align 8 dereferenceable(24) %7)
  %10 = ptrtoint ptr %8 to i64
  %11 = ptrtoint ptr %9 to i64
  %12 = sub i64 %10, %11
  %13 = call noundef i32 @_Z12checked_castIilET_T0_(i64 noundef %12)
  %14 = call noundef ptr @_ZN14AddressLiteral6targetEv(ptr noundef nonnull align 8 dereferenceable(56) %2)
  %15 = call noundef i32 @_ZNK14AddressLiteral5relocEv(ptr noundef nonnull align 8 dereferenceable(56) %2)
  call void @_ZN7AddressC1EiPhN9relocInfo9relocTypeE(ptr noundef nonnull align 8 dereferenceable(64) %0, i32 noundef %13, ptr noundef %14, i32 noundef %15)
  ret void
}

; Function Attrs: mustprogress nounwind uwtable
define linkonce_odr hidden void @_ZN14AddressLiteralC2ERKS_(ptr noundef nonnull align 8 dereferenceable(56) %0, ptr noundef nonnull align 8 dereferenceable(56) %1) unnamed_addr #1 comdat align 2 {
  %3 = alloca ptr, align 8
  %4 = alloca ptr, align 8
  store ptr %0, ptr %3, align 8
  store ptr %1, ptr %4, align 8
  %5 = load ptr, ptr %3, align 8
  %6 = getelementptr inbounds %class.AddressLiteral, ptr %5, i32 0, i32 0
  %7 = load ptr, ptr %4, align 8
  %8 = getelementptr inbounds %class.AddressLiteral, ptr %7, i32 0, i32 0
  call void @_ZN16RelocationHolderC2ERKS_(ptr noundef nonnull align 8 dereferenceable(40) %6, ptr noundef nonnull align 8 dereferenceable(40) %8)
  %9 = getelementptr inbounds %class.AddressLiteral, ptr %5, i32 0, i32 1
  %10 = load ptr, ptr %4, align 8
  %11 = getelementptr inbounds %class.AddressLiteral, ptr %10, i32 0, i32 1
  call void @llvm.memcpy.p0.p0.i64(ptr align 8 %9, ptr align 8 %11, i64 16, i1 false)
  ret void
}

; Function Attrs: mustprogress nounwind uwtable
define hidden void @_ZN14MacroAssembler5cmp64E8Register14AddressLiteralS0_(ptr noundef nonnull align 8 dereferenceable(40) %0, i32 %1, ptr noundef %2, i32 %3) #1 align 2 {
  %5 = alloca %class.Register, align 4
  %6 = alloca %class.Register, align 4
  %7 = alloca ptr, align 8
  %8 = alloca ptr, align 8
  %9 = alloca %class.AddressLiteral, align 8
  %10 = alloca %class.Register, align 4
  %11 = alloca %class.Address, align 8
  %12 = alloca %class.AddressLiteral, align 8
  %13 = alloca %class.Register, align 4
  %14 = alloca %class.AddressLiteral, align 8
  %15 = alloca %class.Register, align 4
  %16 = alloca %class.Address, align 8
  %17 = alloca %class.Register, align 4
  %18 = getelementptr inbounds %class.Register, ptr %5, i32 0, i32 0
  store i32 %1, ptr %18, align 4
  %19 = getelementptr inbounds %class.Register, ptr %6, i32 0, i32 0
  store i32 %3, ptr %19, align 4
  store ptr %0, ptr %7, align 8
  store ptr %2, ptr %8, align 8
  %20 = load ptr, ptr %7, align 8
  call void @_ZN14AddressLiteralC2ERKS_(ptr noundef nonnull align 8 dereferenceable(56) %9, ptr noundef nonnull align 8 dereferenceable(56) %2)
  %21 = call noundef zeroext i1 @_ZN9Assembler9reachableE14AddressLiteral(ptr noundef nonnull align 8 dereferenceable(40) %20, ptr noundef %9)
  br i1 %21, label %22, label %25

22:                                               ; preds = %4
  call void @llvm.memcpy.p0.p0.i64(ptr align 4 %10, ptr align 4 %5, i64 4, i1 false)
  call void @_ZN14AddressLiteralC2ERKS_(ptr noundef nonnull align 8 dereferenceable(56) %12, ptr noundef nonnull align 8 dereferenceable(56) %2)
  call void @_ZN14MacroAssembler10as_AddressE14AddressLiteral(ptr dead_on_unwind writable sret(%class.Address) align 8 %11, ptr noundef nonnull align 8 dereferenceable(40) %20, ptr noundef %12)
  %23 = getelementptr inbounds %class.Register, ptr %10, i32 0, i32 0
  %24 = load i32, ptr %23, align 4
  call void @_ZN9Assembler4cmpqE8Register7Address(ptr noundef nonnull align 8 dereferenceable(40) %20, i32 %24, ptr noundef %11)
  br label %32

25:                                               ; preds = %4
  call void @llvm.memcpy.p0.p0.i64(ptr align 4 %13, ptr align 4 %6, i64 4, i1 false)
  call void @_ZN14AddressLiteralC2ERKS_(ptr noundef nonnull align 8 dereferenceable(56) %14, ptr noundef nonnull align 8 dereferenceable(56) %2)
  %26 = getelementptr inbounds %class.Register, ptr %13, i32 0, i32 0
  %27 = load i32, ptr %26, align 4
  call void @_ZN14MacroAssembler3leaE8Register14AddressLiteral(ptr noundef nonnull align 8 dereferenceable(40) %20, i32 %27, ptr noundef %14)
  call void @llvm.memcpy.p0.p0.i64(ptr align 4 %15, ptr align 4 %5, i64 4, i1 false)
  call void @llvm.memcpy.p0.p0.i64(ptr align 4 %17, ptr align 4 %6, i64 4, i1 false)
  %28 = getelementptr inbounds %class.Register, ptr %17, i32 0, i32 0
  %29 = load i32, ptr %28, align 4
  call void @_ZN7AddressC2E8Registeri(ptr noundef nonnull align 8 dereferenceable(64) %16, i32 %29, i32 noundef 0)
  %30 = getelementptr inbounds %class.Register, ptr %15, i32 0, i32 0
  %31 = load i32, ptr %30, align 4
  call void @_ZN9Assembler4cmpqE8Register7Address(ptr noundef nonnull align 8 dereferenceable(40) %20, i32 %31, ptr noundef %16)
  br label %32

32:                                               ; preds = %25, %22
  ret void
}